; Function Attrs: mustprogress nounwind uwtable
define hidden noundef i32 @_ZNK4Node4hashEv(ptr noundef nonnull align 8 dereferenceable(52) %0) unnamed_addr #0 align 2 {
  %2 = getelementptr inbounds i8, ptr %0, i64 24
  %3 = load i32, ptr %2, align 8
  %.not = icmp eq i32 %3, 0
  br i1 %.not, label %._crit_edge, label %.lr.ph

.lr.ph:                                           ; preds = %1
  %4 = getelementptr inbounds i8, ptr %0, i64 8
  %5 = load ptr, ptr %4, align 8
  %wide.trip.count = zext i32 %3 to i64
  br label %6

6:                                                ; preds = %.lr.ph, %6
  %indvars.iv = phi i64 [ 0, %.lr.ph ], [ %indvars.iv.next, %6 ]
  %.057 = phi i32 [ 0, %.lr.ph ], [ %12, %6 ]
  %7 = shl i32 %.057, 1
  %8 = getelementptr inbounds ptr, ptr %5, i64 %indvars.iv
  %9 = load ptr, ptr %8, align 8
  %10 = ptrtoint ptr %9 to i64
  %11 = trunc i64 %10 to i32
  %12 = sub i32 %7, %11
  %indvars.iv.next = add nuw nsw i64 %indvars.iv, 1
  %exitcond.not = icmp eq i64 %indvars.iv.next, %wide.trip.count
  br i1 %exitcond.not, label %._crit_edge.loopexit, label %6, !llvm.loop !41

._crit_edge.loopexit:                             ; preds = %6
  %13 = lshr i32 %12, 2
  br label %._crit_edge

._crit_edge:                                      ; preds = %._crit_edge.loopexit, %1
  %.05.lcssa = phi i32 [ 0, %1 ], [ %13, %._crit_edge.loopexit ]
  %14 = add i32 %3, %.05.lcssa
  %15 = load ptr, ptr %0, align 8
  %16 = load ptr, ptr %15, align 8
  %17 = tail call noundef i32 %16(ptr noundef nonnull align 8 dereferenceable(52) %0) #15
  %18 = add i32 %14, %17
  ret i32 %18
}